; Function Attrs: mustprogress nofree norecurse nosync nounwind willreturn memory(argmem: read) uwtable
define noundef zeroext i1 @_ZNK10open_spiel13cliff_walking17CliffWalkingState10IsTerminalEv(ptr noundef nonnull readonly align 8 captures(none) dereferenceable(84) %0) unnamed_addr #8 align 2 {
  %2 = getelementptr inbounds nuw i8, ptr %0, i64 80
  %3 = load i32, ptr %2, align 8
  %4 = getelementptr inbounds nuw i8, ptr %0, i64 68
  %5 = load i32, ptr %4, align 4
  %.not = icmp slt i32 %3, %5
  br i1 %.not, label %6, label %26

6:                                                ; preds = %1
  %7 = getelementptr inbounds nuw i8, ptr %0, i64 72
  %8 = load i32, ptr %7, align 8
  %9 = getelementptr inbounds nuw i8, ptr %0, i64 76
  %10 = load i32, ptr %9, align 4
  %11 = icmp sgt i32 %10, 0
  %12 = getelementptr inbounds nuw i8, ptr %0, i64 64
  %13 = load i32, ptr %12, align 8
  %14 = add nsw i32 %13, -1
  %15 = icmp slt i32 %10, %14
  %or.cond = select i1 %11, i1 %15, i1 false
  br i1 %or.cond, label %_ZNK10open_spiel13cliff_walking17CliffWalkingState7IsCliffEii.exit, label %_ZNK10open_spiel13cliff_walking17CliffWalkingState7IsCliffEii.exit.thread

_ZNK10open_spiel13cliff_walking17CliffWalkingState7IsCliffEii.exit: ; preds = %6
  %16 = getelementptr inbounds nuw i8, ptr %0, i64 60
  %17 = load i32, ptr %16, align 4
  %18 = add nsw i32 %17, -1
  %19 = icmp eq i32 %8, %18
  br i1 %19, label %26, label %_ZNK10open_spiel13cliff_walking17CliffWalkingState7IsCliffEii.exit.thread

_ZNK10open_spiel13cliff_walking17CliffWalkingState7IsCliffEii.exit.thread: ; preds = %6, %_ZNK10open_spiel13cliff_walking17CliffWalkingState7IsCliffEii.exit
  %20 = getelementptr inbounds nuw i8, ptr %0, i64 60
  %21 = load i32, ptr %20, align 4
  %22 = add nsw i32 %21, -1
  %23 = icmp eq i32 %8, %22
  %24 = icmp eq i32 %10, %14
  %25 = select i1 %23, i1 %24, i1 false
  br label %26

26:                                               ; preds = %_ZNK10open_spiel13cliff_walking17CliffWalkingState7IsCliffEii.exit.thread, %_ZNK10open_spiel13cliff_walking17CliffWalkingState7IsCliffEii.exit, %1
  %27 = phi i1 [ true, %_ZNK10open_spiel13cliff_walking17CliffWalkingState7IsCliffEii.exit ], [ true, %1 ], [ %25, %_ZNK10open_spiel13cliff_walking17CliffWalkingState7IsCliffEii.exit.thread ]
  ret i1 %27
}